; Function Attrs: mustprogress uwtable
define void @_ZNK3nix7ExprVar4showERKNS_11SymbolTableERSo(ptr nocapture noundef nonnull readonly align 8 dereferenceable(32) %0, ptr nocapture noundef nonnull readonly align 8 dereferenceable(88) %1, ptr noundef nonnull align 8 dereferenceable(8) %2) unnamed_addr #4 align 2 personality ptr @__gxx_personality_v0 {
  %4 = getelementptr inbounds i8, ptr %0, i64 12
  %.sroa.0.0.copyload = load i32, ptr %4, align 4
  %5 = getelementptr inbounds i8, ptr %1, i64 56
  %6 = load i32, ptr %5, align 8
  %7 = freeze i32 %6
  %8 = add i32 %.sroa.0.0.copyload, -1
  %or.cond.not.i = icmp ult i32 %8, %7
  br i1 %or.cond.not.i, label %_ZNK3nix11SymbolTableixENS_6SymbolE.exit, label %9

9:                                                ; preds = %3
  tail call void @abort() #30
  unreachable

_ZNK3nix11SymbolTableixENS_6SymbolE.exit:         ; preds = %3
  %10 = getelementptr inbounds i8, ptr %1, i64 64
  %11 = zext i32 %8 to i64
  %12 = lshr i64 %11, 13
  %13 = load ptr, ptr %10, align 8
  %14 = getelementptr inbounds %"class.std::vector.261", ptr %13, i64 %12
  %15 = and i64 %11, 8191
  %16 = load ptr, ptr %14, align 8
  %17 = getelementptr inbounds %"class.std::__cxx11::basic_string", ptr %16, i64 %15
  %18 = load ptr, ptr %17, align 8
  %19 = getelementptr inbounds i8, ptr %17, i64 8
  %20 = load i64, ptr %19, align 8
  %21 = tail call noundef nonnull align 8 dereferenceable(8) ptr @_ZN3nix15printIdentifierERSoSt17basic_string_viewIcSt11char_traitsIcEE(ptr noundef nonnull align 8 dereferenceable(8) %2, i64 %20, ptr %18)
  ret void
}